target datalayout = "e-m:e-p270:32:32-p271:32:32-p272:64:64-i64:64-i128:128-f80:128-n8:16:32:64-S128"
target triple = "x86_64-pc-linux-gnu"

%struct.lua_State = type { %struct.GCRef, i8, i8, i8, i8, %struct.MRef, %struct.GCRef, ptr, ptr, %struct.MRef, %struct.MRef, %struct.GCRef, %struct.GCRef, ptr, i32 }
%struct.MRef = type { i64 }
%struct.GCRef = type { i64 }
%union.TValue = type { i64 }
%struct.global_State = type { ptr, ptr, %struct.GCState, %struct.GCstr, i8, i8, i8, i8, %struct.StrInternState, i32, %struct.GCRef, %struct.SBuf, %union.TValue, %union.TValue, %struct.Node, %union.TValue, %struct.GCupval, i32, i32, ptr, ptr, ptr, i32, i32, %struct.GCRef, %struct.MRef, %struct.MRef, %struct.PRNGState, [39 x %struct.GCRef] }
%struct.GCState = type { i64, i64, i8, i8, i8, i8, i32, %struct.GCRef, %struct.MRef, %struct.GCRef, %struct.GCRef, %struct.GCRef, %struct.GCRef, i64, i64, i32, i32, %struct.MRef }
%struct.GCstr = type { %struct.GCRef, i8, i8, i8, i8, i32, i32, i32 }
%struct.StrInternState = type { ptr, i32, i32, i32, i8, i8, i8, i8, i64 }
%struct.SBuf = type { ptr, ptr, ptr, %struct.MRef }
%struct.Node = type { %union.TValue, %union.TValue, %struct.MRef }
%struct.GCupval = type { %struct.GCRef, i8, i8, i8, i8, %union.anon, %struct.MRef, i32 }
%union.anon = type { %struct.anon.1 }
%struct.anon.1 = type { %struct.GCRef, %struct.GCRef }
%struct.PRNGState = type { [4 x i64] }

@.str = private unnamed_addr constant [23 x i8] c"copy of dead GC object\00", align 1
@.str.1 = private unnamed_addr constant [24 x i8] c"store to dead GC object\00", align 1

; Function Attrs: alwaysinline nounwind uwtable
define internal void @setgcVraw(ptr noundef %0, ptr noundef %1, i32 noundef %2) #4 {
  %4 = alloca ptr, align 8
  %5 = alloca ptr, align 8
  %6 = alloca i32, align 4
  store ptr %0, ptr %4, align 8, !tbaa !22
  store ptr %1, ptr %5, align 8, !tbaa !67
  store i32 %2, ptr %6, align 4, !tbaa !16
  %7 = load ptr, ptr %5, align 8, !tbaa !67
  %8 = ptrtoint ptr %7 to i64
  %9 = load i32, ptr %6, align 4, !tbaa !16
  %10 = zext i32 %9 to i64
  %11 = shl i64 %10, 47
  %12 = or i64 %8, %11
  %13 = load ptr, ptr %4, align 8, !tbaa !22
  %14 = getelementptr inbounds nuw %struct.GCRef, ptr %13, i32 0, i32 0
  store i64 %12, ptr %14, align 8, !tbaa !26
  ret void
}

; Function Attrs: alwaysinline nounwind uwtable
define internal void @setgcV(ptr noundef %0, ptr noundef %1, ptr noundef %2, i32 noundef %3) #4 {
  %5 = alloca ptr, align 8
  %6 = alloca ptr, align 8
  %7 = alloca ptr, align 8
  %8 = alloca i32, align 4
  store ptr %0, ptr %5, align 8, !tbaa !4
  store ptr %1, ptr %6, align 8, !tbaa !22
  store ptr %2, ptr %7, align 8, !tbaa !67
  store i32 %3, ptr %8, align 4, !tbaa !16
  %9 = load ptr, ptr %6, align 8, !tbaa !22
  %10 = load ptr, ptr %7, align 8, !tbaa !67
  %11 = load i32, ptr %8, align 4, !tbaa !16
  call void @setgcVraw(ptr noundef %9, ptr noundef %10, i32 noundef %11)
  %12 = load ptr, ptr %5, align 8, !tbaa !4
  %13 = load ptr, ptr %6, align 8, !tbaa !22
  call void @checklivetv(ptr noundef %12, ptr noundef %13, ptr noundef @.str.1)
  ret void
}

; Function Attrs: alwaysinline nounwind uwtable
define internal void @checklivetv(ptr noundef %0, ptr noundef %1, ptr noundef %2) #4 {
  %4 = alloca ptr, align 8
  %5 = alloca ptr, align 8
  %6 = alloca ptr, align 8
  store ptr %0, ptr %4, align 8, !tbaa !4
  store ptr %1, ptr %5, align 8, !tbaa !22
  store ptr %2, ptr %6, align 8, !tbaa !20
  ret void
}

; Function Attrs: alwaysinline nounwind uwtable
define internal void @setstrV(ptr noundef %0, ptr noundef %1, ptr noundef %2) #4 {
  %4 = alloca ptr, align 8
  %5 = alloca ptr, align 8
  %6 = alloca ptr, align 8
  store ptr %0, ptr %4, align 8, !tbaa !4
  store ptr %1, ptr %5, align 8, !tbaa !22
  store ptr %2, ptr %6, align 8, !tbaa !41
  %7 = load ptr, ptr %4, align 8, !tbaa !4
  %8 = load ptr, ptr %5, align 8, !tbaa !22
  %9 = load ptr, ptr %6, align 8, !tbaa !41
  call void @setgcV(ptr noundef %7, ptr noundef %8, ptr noundef %9, i32 noundef -5)
  ret void
}

; Function Attrs: alwaysinline nounwind uwtable
define internal void @copyTV(ptr noundef %0, ptr noundef %1, ptr noundef %2) #4 {
  %4 = alloca ptr, align 8
  %5 = alloca ptr, align 8
  %6 = alloca ptr, align 8
  store ptr %0, ptr %4, align 8, !tbaa !4
  store ptr %1, ptr %5, align 8, !tbaa !22
  store ptr %2, ptr %6, align 8, !tbaa !22
  %7 = load ptr, ptr %5, align 8, !tbaa !22
  %8 = load ptr, ptr %6, align 8, !tbaa !22
  call void @llvm.memcpy.p0.p0.i64(ptr align 8 %7, ptr align 8 %8, i64 8, i1 false), !tbaa.struct !25
  %9 = load ptr, ptr %4, align 8, !tbaa !4
  %10 = load ptr, ptr %5, align 8, !tbaa !22
  call void @checklivetv(ptr noundef %9, ptr noundef %10, ptr noundef @.str)
  ret void
}

; Function Attrs: nounwind uwtable
define dso_local void @lua_concat(ptr noundef %0, i32 noundef %1) #0 {
  %3 = alloca ptr, align 8
  %4 = alloca i32, align 4
  %5 = alloca ptr, align 8
  %6 = alloca i32, align 4
  store ptr %0, ptr %3, align 8, !tbaa !4
  store i32 %1, ptr %4, align 4, !tbaa !16
  %7 = load i32, ptr %4, align 4, !tbaa !16
  %8 = icmp sge i32 %7, 2
  br i1 %8, label %9, label %71

9:                                                ; preds = %2
  %10 = load i32, ptr %4, align 4, !tbaa !16
  %11 = add nsw i32 %10, -1
  store i32 %11, ptr %4, align 4, !tbaa !16
  br label %12

12:                                               ; preds = %66, %9
  call void @llvm.lifetime.start.p0(i64 8, ptr %5) #9
  %13 = load ptr, ptr %3, align 8, !tbaa !4
  %14 = load ptr, ptr %3, align 8, !tbaa !4
  %15 = getelementptr inbounds nuw %struct.lua_State, ptr %14, i32 0, i32 8
  %16 = load ptr, ptr %15, align 8, !tbaa !17
  %17 = getelementptr inbounds %union.TValue, ptr %16, i64 -1
  %18 = load i32, ptr %4, align 4, !tbaa !16
  %19 = sub nsw i32 0, %18
  %20 = call ptr @lj_meta_cat(ptr noundef %13, ptr noundef %17, i32 noundef %19)
  store ptr %20, ptr %5, align 8, !tbaa !22
  %21 = load ptr, ptr %5, align 8, !tbaa !22
  %22 = icmp eq ptr %21, null
  br i1 %22, label %23, label %31

23:                                               ; preds = %12
  %24 = load i32, ptr %4, align 4, !tbaa !16
  %25 = load ptr, ptr %3, align 8, !tbaa !4
  %26 = getelementptr inbounds nuw %struct.lua_State, ptr %25, i32 0, i32 8
  %27 = load ptr, ptr %26, align 8, !tbaa !17
  %28 = sext i32 %24 to i64
  %29 = sub i64 0, %28
  %30 = getelementptr inbounds %union.TValue, ptr %27, i64 %29
  store ptr %30, ptr %26, align 8, !tbaa !17
  store i32 2, ptr %6, align 4
  br label %63

31:                                               ; preds = %12
  %32 = load ptr, ptr %3, align 8, !tbaa !4
  %33 = getelementptr inbounds nuw %struct.lua_State, ptr %32, i32 0, i32 8
  %34 = load ptr, ptr %33, align 8, !tbaa !17
  %35 = load ptr, ptr %5, align 8, !tbaa !22
  %36 = getelementptr inbounds %union.TValue, ptr %35, i64 -2
  %37 = ptrtoint ptr %34 to i64
  %38 = ptrtoint ptr %36 to i64
  %39 = sub i64 %37, %38
  %40 = sdiv exact i64 %39, 8
  %41 = trunc i64 %40 to i32
  %42 = load i32, ptr %4, align 4, !tbaa !16
  %43 = sub nsw i32 %42, %41
  store i32 %43, ptr %4, align 4, !tbaa !16
  %44 = load ptr, ptr %5, align 8, !tbaa !22
  %45 = getelementptr inbounds %union.TValue, ptr %44, i64 2
  %46 = load ptr, ptr %3, align 8, !tbaa !4
  %47 = getelementptr inbounds nuw %struct.lua_State, ptr %46, i32 0, i32 8
  store ptr %45, ptr %47, align 8, !tbaa !17
  %48 = load ptr, ptr %3, align 8, !tbaa !4
  %49 = load ptr, ptr %5, align 8, !tbaa !22
  call void @lj_vm_call(ptr noundef %48, ptr noundef %49, i32 noundef 2)
  %50 = load ptr, ptr %3, align 8, !tbaa !4
  %51 = getelementptr inbounds nuw %struct.lua_State, ptr %50, i32 0, i32 8
  %52 = load ptr, ptr %51, align 8, !tbaa !17
  %53 = getelementptr inbounds %union.TValue, ptr %52, i64 -2
  store ptr %53, ptr %51, align 8, !tbaa !17
  %54 = load ptr, ptr %3, align 8, !tbaa !4
  %55 = load ptr, ptr %3, align 8, !tbaa !4
  %56 = getelementptr inbounds nuw %struct.lua_State, ptr %55, i32 0, i32 8
  %57 = load ptr, ptr %56, align 8, !tbaa !17
  %58 = getelementptr inbounds %union.TValue, ptr %57, i64 -1
  %59 = load ptr, ptr %3, align 8, !tbaa !4
  %60 = getelementptr inbounds nuw %struct.lua_State, ptr %59, i32 0, i32 8
  %61 = load ptr, ptr %60, align 8, !tbaa !17
  %62 = getelementptr inbounds %union.TValue, ptr %61, i64 1
  call void @copyTV(ptr noundef %54, ptr noundef %58, ptr noundef %62)
  store i32 0, ptr %6, align 4
  br label %63

63:                                               ; preds = %31, %23
  call void @llvm.lifetime.end.p0(i64 8, ptr %5) #9
  %64 = load i32, ptr %6, align 4
  switch i32 %64, label %100 [
    i32 0, label %65
    i32 2, label %70
  ]

65:                                               ; preds = %63
  br label %66

66:                                               ; preds = %65
  %67 = load i32, ptr %4, align 4, !tbaa !16
  %68 = add nsw i32 %67, -1
  store i32 %68, ptr %4, align 4, !tbaa !16
  %69 = icmp sgt i32 %68, 0
  br i1 %69, label %12, label %70, !llvm.loop !75

70:                                               ; preds = %66, %63
  br label %99

71:                                               ; preds = %2
  %72 = load i32, ptr %4, align 4, !tbaa !16
  %73 = icmp eq i32 %72, 0
  br i1 %73, label %74, label %98

74:                                               ; preds = %71
  %75 = load ptr, ptr %3, align 8, !tbaa !4
  %76 = load ptr, ptr %3, align 8, !tbaa !4
  %77 = getelementptr inbounds nuw %struct.lua_State, ptr %76, i32 0, i32 8
  %78 = load ptr, ptr %77, align 8, !tbaa !17
  %79 = load ptr, ptr %3, align 8, !tbaa !4
  %80 = getelementptr inbounds nuw %struct.lua_State, ptr %79, i32 0, i32 5
  %81 = getelementptr inbounds nuw %struct.MRef, ptr %80, i32 0, i32 0
  %82 = load i64, ptr %81, align 8, !tbaa !29
  %83 = inttoptr i64 %82 to ptr
  %84 = getelementptr inbounds nuw %struct.global_State, ptr %83, i32 0, i32 3
  call void @setstrV(ptr noundef %75, ptr noundef %78, ptr noundef %84)
  %85 = load ptr, ptr %3, align 8, !tbaa !4
  %86 = getelementptr inbounds nuw %struct.lua_State, ptr %85, i32 0, i32 8
  %87 = load ptr, ptr %86, align 8, !tbaa !17
  %88 = getelementptr inbounds nuw %union.TValue, ptr %87, i32 1
  store ptr %88, ptr %86, align 8, !tbaa !17
  %89 = load ptr, ptr %3, align 8, !tbaa !4
  %90 = getelementptr inbounds nuw %struct.lua_State, ptr %89, i32 0, i32 9
  %91 = getelementptr inbounds nuw %struct.MRef, ptr %90, i32 0, i32 0
  %92 = load i64, ptr %91, align 8, !tbaa !19
  %93 = inttoptr i64 %92 to ptr
  %94 = icmp uge ptr %88, %93
  br i1 %94, label %95, label %97

95:                                               ; preds = %74
  %96 = load ptr, ptr %3, align 8, !tbaa !4
  call void @lj_state_growstack1(ptr noundef %96)
  br label %97

97:                                               ; preds = %95, %74
  br label %98

98:                                               ; preds = %97, %71
  br label %99

99:                                               ; preds = %98, %70
  ret void

100:                                              ; preds = %63
  unreachable
}