; Function Attrs: nounwind uwtable
define dso_local void @lua_concat(ptr noundef %0, i32 noundef %1) local_unnamed_addr #1 {
  %3 = icmp sgt i32 %1, 1
  br i1 %3, label %.preheader, label %30

.preheader:                                       ; preds = %2
  %4 = getelementptr inbounds nuw i8, ptr %0, i64 40
  br label %5

5:                                                ; preds = %.preheader, %15
  %.027.in = phi i32 [ %22, %15 ], [ %1, %.preheader ]
  %.027 = add nsw i32 %.027.in, -1
  %6 = load ptr, ptr %4, align 8, !tbaa !14
  %7 = getelementptr inbounds i8, ptr %6, i64 -8
  %8 = sub nsw i32 1, %.027.in
  %9 = tail call ptr @lj_meta_cat(ptr noundef %0, ptr noundef nonnull %7, i32 noundef %8) #13
  %10 = icmp eq ptr %9, null
  %11 = load ptr, ptr %4, align 8, !tbaa !14
  br i1 %10, label %.thread, label %15

.thread:                                          ; preds = %5
  %12 = zext nneg i32 %.027 to i64
  %13 = sub nsw i64 0, %12
  %14 = getelementptr inbounds %union.TValue, ptr %11, i64 %13
  store ptr %14, ptr %4, align 8, !tbaa !14
  br label %.loopexit

15:                                               ; preds = %5
  %16 = getelementptr inbounds i8, ptr %9, i64 -16
  %17 = ptrtoint ptr %11 to i64
  %18 = ptrtoint ptr %16 to i64
  %19 = sub i64 %17, %18
  %20 = lshr exact i64 %19, 3
  %21 = trunc i64 %20 to i32
  %22 = sub nsw i32 %.027, %21
  %23 = getelementptr inbounds nuw i8, ptr %9, i64 16
  store ptr %23, ptr %4, align 8, !tbaa !14
  tail call void @lj_vm_call(ptr noundef nonnull %0, ptr noundef nonnull %9, i32 noundef 2) #13
  %24 = load ptr, ptr %4, align 8, !tbaa !14
  %25 = getelementptr inbounds i8, ptr %24, i64 -16
  store ptr %25, ptr %4, align 8, !tbaa !14
  %26 = getelementptr inbounds i8, ptr %24, i64 -24
  %27 = getelementptr inbounds i8, ptr %24, i64 -8
  %28 = load i64, ptr %27, align 8, !tbaa !17
  store i64 %28, ptr %26, align 8, !tbaa !17
  %29 = icmp sgt i32 %22, 1
  br i1 %29, label %5, label %.loopexit, !llvm.loop !50

30:                                               ; preds = %2
  %31 = icmp eq i32 %1, 0
  br i1 %31, label %32, label %.loopexit

32:                                               ; preds = %30
  %33 = getelementptr inbounds nuw i8, ptr %0, i64 40
  %34 = load ptr, ptr %33, align 8, !tbaa !14
  %35 = getelementptr inbounds nuw i8, ptr %0, i64 16
  %36 = load i64, ptr %35, align 8, !tbaa !21
  %37 = add nuw i64 %36, 120
  %38 = or i64 %37, -703687441776640
  store i64 %38, ptr %34, align 8, !tbaa !17
  %39 = load ptr, ptr %33, align 8, !tbaa !14
  %40 = getelementptr inbounds nuw i8, ptr %39, i64 8
  store ptr %40, ptr %33, align 8, !tbaa !14
  %41 = getelementptr inbounds nuw i8, ptr %0, i64 48
  %42 = load i64, ptr %41, align 8, !tbaa !16
  %43 = inttoptr i64 %42 to ptr
  %.not = icmp ult ptr %40, %43
  br i1 %.not, label %.loopexit, label %44

44:                                               ; preds = %32
  tail call void @lj_state_growstack1(ptr noundef nonnull %0) #13
  br label %.loopexit

.loopexit:                                        ; preds = %15, %.thread, %30, %44, %32
  ret void
}